; ModuleID = 'source-C-CXX/4/68.c'
source_filename = "source-C-CXX/4/68.c"
target datalayout = "e-m:e-p270:32:32-p271:32:32-p272:64:64-i64:64-f80:128-n8:16:32:64-S128"
target triple = "x86_64-pc-linux-gnu"

@.str = private unnamed_addr constant [8 x i8] c"%lf%s%s\00", align 1
@.str.1 = private unnamed_addr constant [6 x i8] c"error\00", align 1
@.str.2 = private unnamed_addr constant [4 x i8] c"yes\00", align 1
@.str.3 = private unnamed_addr constant [3 x i8] c"no\00", align 1

; Function Attrs: nofree nounwind sspstrong uwtable
define dso_local i32 @main() local_unnamed_addr #0 {
  %1 = alloca [501 x i8], align 16
  %2 = alloca [501 x i8], align 16
  %3 = alloca double, align 8
  %4 = getelementptr inbounds [501 x i8], [501 x i8]* %1, i64 0, i64 0
  call void @llvm.lifetime.start.p0i8(i64 501, i8* nonnull %4) #4
  %5 = getelementptr inbounds [501 x i8], [501 x i8]* %2, i64 0, i64 0
  call void @llvm.lifetime.start.p0i8(i64 501, i8* nonnull %5) #4
  %6 = bitcast double* %3 to i8*
  call void @llvm.lifetime.start.p0i8(i64 8, i8* nonnull %6) #4
  %7 = call i32 (i8*, ...) @__isoc99_scanf(i8* getelementptr inbounds ([8 x i8], [8 x i8]* @.str, i64 0, i64 0), double* nonnull %3, i8* nonnull %4, i8* nonnull %5)
  %8 = call i64 @strlen(i8* noundef nonnull %4) #5
  %9 = call i64 @strlen(i8* noundef nonnull %5) #5
  %10 = icmp eq i64 %8, %9
  br i1 %10, label %11, label %32

11:                                               ; preds = %0, %19
  %12 = phi i64 [ %23, %19 ], [ 0, %0 ]
  %13 = phi i32 [ %22, %19 ], [ 0, %0 ]
  %14 = getelementptr inbounds [501 x i8], [501 x i8]* %1, i64 0, i64 %12
  %15 = load i8, i8* %14, align 1, !tbaa !5
  switch i8 %15, label %32 [
    i8 0, label %24
    i8 65, label %16
    i8 84, label %16
    i8 71, label %16
    i8 67, label %16
  ]

16:                                               ; preds = %11, %11, %11, %11
  %17 = getelementptr inbounds [501 x i8], [501 x i8]* %2, i64 0, i64 %12
  %18 = load i8, i8* %17, align 1, !tbaa !5
  switch i8 %18, label %32 [
    i8 65, label %19
    i8 67, label %19
    i8 71, label %19
    i8 84, label %19
  ]

19:                                               ; preds = %16, %16, %16, %16
  %20 = icmp eq i8 %15, %18
  %21 = zext i1 %20 to i32
  %22 = add nuw nsw i32 %13, %21
  %23 = add nuw i64 %12, 1
  br label %11, !llvm.loop !8

24:                                               ; preds = %11
  %25 = trunc i64 %12 to i32
  %26 = sitofp i32 %13 to double
  %27 = sitofp i32 %25 to double
  %28 = fdiv double %26, %27
  %29 = load double, double* %3, align 8, !tbaa !10
  %30 = fcmp ult double %28, %29
  %31 = select i1 %30, i8* getelementptr inbounds ([3 x i8], [3 x i8]* @.str.3, i64 0, i64 0), i8* getelementptr inbounds ([4 x i8], [4 x i8]* @.str.2, i64 0, i64 0)
  br label %32

32:                                               ; preds = %11, %16, %24, %0
  %33 = phi i8* [ getelementptr inbounds ([6 x i8], [6 x i8]* @.str.1, i64 0, i64 0), %0 ], [ %31, %24 ], [ getelementptr inbounds ([6 x i8], [6 x i8]* @.str.1, i64 0, i64 0), %16 ], [ getelementptr inbounds ([6 x i8], [6 x i8]* @.str.1, i64 0, i64 0), %11 ]
  %34 = call i32 (i8*, ...) @printf(i8* nonnull dereferenceable(1) %33)
  call void @llvm.lifetime.end.p0i8(i64 8, i8* nonnull %6) #4
  call void @llvm.lifetime.end.p0i8(i64 501, i8* nonnull %5) #4
  call void @llvm.lifetime.end.p0i8(i64 501, i8* nonnull %4) #4
  ret i32 0
}

; Function Attrs: argmemonly mustprogress nofree nosync nounwind willreturn
declare void @llvm.lifetime.start.p0i8(i64 immarg, i8* nocapture) #1

; Function Attrs: nofree nounwind
declare noundef i32 @__isoc99_scanf(i8* nocapture noundef readonly, ...) local_unnamed_addr #2

; Function Attrs: argmemonly mustprogress nofree nounwind readonly willreturn
declare i64 @strlen(i8* nocapture) local_unnamed_addr #3

; Function Attrs: nofree nounwind
declare noundef i32 @printf(i8* nocapture noundef readonly, ...) local_unnamed_addr #2

; Function Attrs: argmemonly mustprogress nofree nosync nounwind willreturn
declare void @llvm.lifetime.end.p0i8(i64 immarg, i8* nocapture) #1


!llvm.module.flags = !{!0, !1, !2, !3}
!llvm.ident = !{!4}

!0 = !{i32 1, !"wchar_size", i32 4}
!1 = !{i32 7, !"PIC Level", i32 2}
!2 = !{i32 7, !"PIE Level", i32 2}
!3 = !{i32 7, !"uwtable", i32 1}
!4 = !{!"clang version 13.0.0"}
!5 = !{!6, !6, i64 0}
!6 = !{!"omnipotent char", !7, i64 0}
!7 = !{!"Simple C/C++ TBAA"}
!8 = distinct !{!8, !9}
!9 = !{!"llvm.loop.mustprogress"}
!10 = !{!11, !11, i64 0}
!11 = !{!"double", !6, i64 0}
